target datalayout = "e-m:e-p270:32:32-p271:32:32-p272:64:64-i64:64-i128:128-f80:128-n8:16:32:64-S128"
target triple = "x86_64-pc-linux-gnu"

%struct.Vec_Int_t_ = type { i32, i32, ptr }

@.str.5 = private unnamed_addr constant [2 x i8] c"\0A\00", align 1
@.str.37 = private unnamed_addr constant [4 x i8] c"\0A.s\00", align 1
@.str.38 = private unnamed_addr constant [4 x i8] c" %d\00", align 1
@.str.39 = private unnamed_addr constant [4 x i8] c"\0A.a\00", align 1
@.str.49 = private unnamed_addr constant [3 x i8] c"ab\00", align 1
@.str.50 = private unnamed_addr constant [36 x i8] c"Cannot open file \22%s\22 for writing.\0A\00", align 1

; Function Attrs: inlinehint nounwind uwtable
define internal i32 @Vec_IntEntry(ptr noundef %0, i32 noundef %1) #2 {
  %3 = alloca ptr, align 8
  %4 = alloca i32, align 4
  store ptr %0, ptr %3, align 8, !tbaa !41
  store i32 %1, ptr %4, align 4, !tbaa !8
  %5 = load ptr, ptr %3, align 8, !tbaa !41
  %6 = getelementptr inbounds nuw %struct.Vec_Int_t_, ptr %5, i32 0, i32 2
  %7 = load ptr, ptr %6, align 8, !tbaa !59
  %8 = load i32, ptr %4, align 4, !tbaa !8
  %9 = sext i32 %8 to i64
  %10 = getelementptr inbounds i32, ptr %7, i64 %9
  %11 = load i32, ptr %10, align 4, !tbaa !8
  ret i32 %11
}

; Function Attrs: inlinehint nounwind uwtable
define internal i32 @Vec_IntSize(ptr noundef %0) #2 {
  %2 = alloca ptr, align 8
  store ptr %0, ptr %2, align 8, !tbaa !41
  %3 = load ptr, ptr %2, align 8, !tbaa !41
  %4 = getelementptr inbounds nuw %struct.Vec_Int_t_, ptr %3, i32 0, i32 1
  %5 = load i32, ptr %4, align 4, !tbaa !57
  ret i32 %5
}

; Function Attrs: nounwind uwtable
define void @Supp_RecordSolution(ptr noundef %0, ptr noundef %1, ptr noundef %2) #0 {
  %4 = alloca ptr, align 8
  %5 = alloca ptr, align 8
  %6 = alloca ptr, align 8
  %7 = alloca ptr, align 8
  %8 = alloca i32, align 4
  %9 = alloca i32, align 4
  %10 = alloca i32, align 4
  store ptr %0, ptr %4, align 8, !tbaa !186
  store ptr %1, ptr %5, align 8, !tbaa !41
  store ptr %2, ptr %6, align 8, !tbaa !41
  call void @llvm.lifetime.start.p0(i64 8, ptr %7) #15
  %11 = load ptr, ptr %4, align 8, !tbaa !186
  %12 = call noalias ptr @fopen(ptr noundef %11, ptr noundef @.str.49)
  store ptr %12, ptr %7, align 8, !tbaa !166
  %13 = load ptr, ptr %7, align 8, !tbaa !166
  %14 = icmp eq ptr %13, null
  br i1 %14, label %15, label %18

15:                                               ; preds = %3
  %16 = load ptr, ptr %4, align 8, !tbaa !186
  %17 = call i32 (ptr, ...) @printf(ptr noundef @.str.50, ptr noundef %16)
  store i32 1, ptr %8, align 4
  br label %66

18:                                               ; preds = %3
  call void @llvm.lifetime.start.p0(i64 4, ptr %9) #15
  call void @llvm.lifetime.start.p0(i64 4, ptr %10) #15
  %19 = load ptr, ptr %7, align 8, !tbaa !166
  %20 = call i32 (ptr, ptr, ...) @fprintf(ptr noundef %19, ptr noundef @.str.37) #15
  store i32 2, ptr %9, align 4, !tbaa !8
  br label %21

21:                                               ; preds = %36, %18
  %22 = load i32, ptr %9, align 4, !tbaa !8
  %23 = load ptr, ptr %5, align 8, !tbaa !41
  %24 = call i32 @Vec_IntSize(ptr noundef %23)
  %25 = icmp slt i32 %22, %24
  br i1 %25, label %26, label %30

26:                                               ; preds = %21
  %27 = load ptr, ptr %5, align 8, !tbaa !41
  %28 = load i32, ptr %9, align 4, !tbaa !8
  %29 = call i32 @Vec_IntEntry(ptr noundef %27, i32 noundef %28)
  store i32 %29, ptr %10, align 4, !tbaa !8
  br label %30

30:                                               ; preds = %26, %21
  %31 = phi i1 [ false, %21 ], [ true, %26 ]
  br i1 %31, label %32, label %39

32:                                               ; preds = %30
  %33 = load ptr, ptr %7, align 8, !tbaa !166
  %34 = load i32, ptr %10, align 4, !tbaa !8
  %35 = call i32 (ptr, ptr, ...) @fprintf(ptr noundef %33, ptr noundef @.str.38, i32 noundef %34) #15
  br label %36

36:                                               ; preds = %32
  %37 = load i32, ptr %9, align 4, !tbaa !8
  %38 = add nsw i32 %37, 1
  store i32 %38, ptr %9, align 4, !tbaa !8
  br label %21, !llvm.loop !195

39:                                               ; preds = %30
  %40 = load ptr, ptr %7, align 8, !tbaa !166
  %41 = call i32 (ptr, ptr, ...) @fprintf(ptr noundef %40, ptr noundef @.str.39) #15
  store i32 0, ptr %9, align 4, !tbaa !8
  br label %42

42:                                               ; preds = %58, %39
  %43 = load i32, ptr %9, align 4, !tbaa !8
  %44 = load ptr, ptr %6, align 8, !tbaa !41
  %45 = call i32 @Vec_IntSize(ptr noundef %44)
  %46 = icmp slt i32 %43, %45
  br i1 %46, label %47, label %51

47:                                               ; preds = %42
  %48 = load ptr, ptr %6, align 8, !tbaa !41
  %49 = load i32, ptr %9, align 4, !tbaa !8
  %50 = call i32 @Vec_IntEntry(ptr noundef %48, i32 noundef %49)
  store i32 %50, ptr %10, align 4, !tbaa !8
  br label %51

51:                                               ; preds = %47, %42
  %52 = phi i1 [ false, %42 ], [ true, %47 ]
  br i1 %52, label %53, label %61

53:                                               ; preds = %51
  %54 = load ptr, ptr %7, align 8, !tbaa !166
  %55 = load i32, ptr %10, align 4, !tbaa !8
  %56 = sub nsw i32 %55, 2
  %57 = call i32 (ptr, ptr, ...) @fprintf(ptr noundef %54, ptr noundef @.str.38, i32 noundef %56) #15
  br label %58

58:                                               ; preds = %53
  %59 = load i32, ptr %9, align 4, !tbaa !8
  %60 = add nsw i32 %59, 1
  store i32 %60, ptr %9, align 4, !tbaa !8
  br label %42, !llvm.loop !196

61:                                               ; preds = %51
  %62 = load ptr, ptr %7, align 8, !tbaa !166
  %63 = call i32 (ptr, ptr, ...) @fprintf(ptr noundef %62, ptr noundef @.str.5) #15
  %64 = load ptr, ptr %7, align 8, !tbaa !166
  %65 = call i32 @fclose(ptr noundef %64)
  call void @llvm.lifetime.end.p0(i64 4, ptr %10) #15
  call void @llvm.lifetime.end.p0(i64 4, ptr %9) #15
  store i32 0, ptr %8, align 4
  br label %66

66:                                               ; preds = %61, %15
  call void @llvm.lifetime.end.p0(i64 8, ptr %7) #15
  %67 = load i32, ptr %8, align 4
  switch i32 %67, label %69 [
    i32 0, label %68
    i32 1, label %68
  ]

68:                                               ; preds = %66, %66
  ret void

69:                                               ; preds = %66
  unreachable
}