; Function Attrs: nofree nounwind uwtable
define void @Supp_RecordSolution(ptr noundef %0, ptr noundef readonly captures(none) %1, ptr noundef readonly captures(none) %2) local_unnamed_addr #12 {
  %4 = tail call noalias ptr @fopen(ptr noundef %0, ptr noundef nonnull @.str.49)
  %5 = icmp eq ptr %4, null
  br i1 %5, label %6, label %8

6:                                                ; preds = %3
  %7 = tail call i32 (ptr, ...) @printf(ptr noundef nonnull dereferenceable(1) @.str.50, ptr noundef %0)
  br label %31

8:                                                ; preds = %3
  %9 = tail call i64 @fwrite(ptr nonnull @.str.37, i64 3, i64 1, ptr nonnull %4)
  %10 = getelementptr i8, ptr %1, i64 4
  %.val2326 = load i32, ptr %10, align 4, !tbaa !30
  %11 = icmp sgt i32 %.val2326, 2
  br i1 %11, label %.lr.ph, label %.critedge

.lr.ph:                                           ; preds = %8
  %12 = getelementptr i8, ptr %1, i64 8
  br label %13

13:                                               ; preds = %.lr.ph, %13
  %indvars.iv = phi i64 [ 2, %.lr.ph ], [ %indvars.iv.next, %13 ]
  %.val25 = load ptr, ptr %12, align 8, !tbaa !34
  %14 = getelementptr inbounds nuw i32, ptr %.val25, i64 %indvars.iv
  %15 = load i32, ptr %14, align 4, !tbaa !35
  %16 = tail call i32 (ptr, ptr, ...) @fprintf(ptr noundef nonnull %4, ptr noundef nonnull @.str.38, i32 noundef %15) #32
  %indvars.iv.next = add nuw nsw i64 %indvars.iv, 1
  %.val23 = load i32, ptr %10, align 4, !tbaa !30
  %17 = sext i32 %.val23 to i64
  %18 = icmp slt i64 %indvars.iv.next, %17
  br i1 %18, label %13, label %.critedge, !llvm.loop !175

.critedge:                                        ; preds = %13, %8
  %19 = tail call i64 @fwrite(ptr nonnull @.str.39, i64 3, i64 1, ptr nonnull %4)
  %20 = getelementptr i8, ptr %2, i64 4
  %.val28 = load i32, ptr %20, align 4, !tbaa !30
  %21 = icmp sgt i32 %.val28, 0
  br i1 %21, label %.lr.ph30, label %.critedge2

.lr.ph30:                                         ; preds = %.critedge
  %22 = getelementptr i8, ptr %2, i64 8
  br label %23

23:                                               ; preds = %.lr.ph30, %23
  %indvars.iv32 = phi i64 [ 0, %.lr.ph30 ], [ %indvars.iv.next33, %23 ]
  %.val24 = load ptr, ptr %22, align 8, !tbaa !34
  %24 = getelementptr inbounds nuw i32, ptr %.val24, i64 %indvars.iv32
  %25 = load i32, ptr %24, align 4, !tbaa !35
  %26 = add nsw i32 %25, -2
  %27 = tail call i32 (ptr, ptr, ...) @fprintf(ptr noundef nonnull %4, ptr noundef nonnull @.str.38, i32 noundef %26) #32
  %indvars.iv.next33 = add nuw nsw i64 %indvars.iv32, 1
  %.val = load i32, ptr %20, align 4, !tbaa !30
  %28 = sext i32 %.val to i64
  %29 = icmp slt i64 %indvars.iv.next33, %28
  br i1 %29, label %23, label %.critedge2, !llvm.loop !176

.critedge2:                                       ; preds = %23, %.critedge
  %fputc = tail call i32 @fputc(i32 10, ptr nonnull %4)
  %30 = tail call i32 @fclose(ptr noundef nonnull %4)
  br label %31

31:                                               ; preds = %.critedge2, %6
  ret void
}